target datalayout = "e-m:e-p270:32:32-p271:32:32-p272:64:64-i64:64-i128:128-f80:128-n8:16:32:64-S128"
target triple = "x86_64-pc-linux-gnu"

; Function Attrs: mustprogress nounwind uwtable
define linkonce_odr noundef nonnull align 4 dereferenceable(4) ptr @_ZSt3maxIiERKT_S2_S2_(ptr noundef nonnull align 4 dereferenceable(4) %0, ptr noundef nonnull align 4 dereferenceable(4) %1) #1 comdat {
  %3 = alloca ptr, align 8
  %4 = alloca ptr, align 8
  %5 = alloca ptr, align 8
  store ptr %0, ptr %4, align 8
  store ptr %1, ptr %5, align 8
  %6 = load ptr, ptr %4, align 8
  %7 = load i32, ptr %6, align 4
  %8 = load ptr, ptr %5, align 8
  %9 = load i32, ptr %8, align 4
  %10 = icmp slt i32 %7, %9
  br i1 %10, label %11, label %13

11:                                               ; preds = %2
  %12 = load ptr, ptr %5, align 8
  store ptr %12, ptr %3, align 8
  br label %15

13:                                               ; preds = %2
  %14 = load ptr, ptr %4, align 8
  store ptr %14, ptr %3, align 8
  br label %15

15:                                               ; preds = %13, %11
  %16 = load ptr, ptr %3, align 8
  ret ptr %16
}

; Function Attrs: mustprogress nounwind uwtable
define internal noundef i32 @_ZN2cvL7normInfIsiEET0_PKT_S4_i(ptr noundef %0, ptr noundef %1, i32 noundef %2) #1 {
  %4 = alloca ptr, align 8
  %5 = alloca ptr, align 8
  %6 = alloca i32, align 4
  %7 = alloca i32, align 4
  %8 = alloca i32, align 4
  %9 = alloca i32, align 4
  %10 = alloca i32, align 4
  store ptr %0, ptr %4, align 8
  store ptr %1, ptr %5, align 8
  store i32 %2, ptr %6, align 4
  store i32 0, ptr %7, align 4
  store i32 0, ptr %8, align 4
  br label %11

11:                                               ; preds = %33, %3
  %12 = load i32, ptr %8, align 4
  %13 = load i32, ptr %6, align 4
  %14 = icmp slt i32 %12, %13
  br i1 %14, label %15, label %36

15:                                               ; preds = %11
  %16 = load ptr, ptr %4, align 8
  %17 = load i32, ptr %8, align 4
  %18 = sext i32 %17 to i64
  %19 = getelementptr inbounds i16, ptr %16, i64 %18
  %20 = load i16, ptr %19, align 2
  %21 = sext i16 %20 to i32
  %22 = load ptr, ptr %5, align 8
  %23 = load i32, ptr %8, align 4
  %24 = sext i32 %23 to i64
  %25 = getelementptr inbounds i16, ptr %22, i64 %24
  %26 = load i16, ptr %25, align 2
  %27 = sext i16 %26 to i32
  %28 = sub nsw i32 %21, %27
  store i32 %28, ptr %9, align 4
  %29 = load i32, ptr %9, align 4
  %30 = call i32 @llvm.abs.i32(i32 %29, i1 true)
  store i32 %30, ptr %10, align 4
  %31 = call noundef nonnull align 4 dereferenceable(4) ptr @_ZSt3maxIiERKT_S2_S2_(ptr noundef nonnull align 4 dereferenceable(4) %7, ptr noundef nonnull align 4 dereferenceable(4) %10)
  %32 = load i32, ptr %31, align 4
  store i32 %32, ptr %7, align 4
  br label %33

33:                                               ; preds = %15
  %34 = load i32, ptr %8, align 4
  %35 = add nsw i32 %34, 1
  store i32 %35, ptr %8, align 4
  br label %11, !llvm.loop !105

36:                                               ; preds = %11
  %37 = load i32, ptr %7, align 4
  ret i32 %37
}

; Function Attrs: mustprogress uwtable
define linkonce_odr hidden noundef i32 @_ZN2cv12normDiffInf_IsiEEiPKT_S3_PKhPT0_ii(ptr noundef %0, ptr noundef %1, ptr noundef %2, ptr noundef %3, i32 noundef %4, i32 noundef %5) #0 comdat {
  %7 = alloca ptr, align 8
  %8 = alloca ptr, align 8
  %9 = alloca ptr, align 8
  %10 = alloca ptr, align 8
  %11 = alloca i32, align 4
  %12 = alloca i32, align 4
  %13 = alloca i32, align 4
  %14 = alloca i32, align 4
  %15 = alloca i32, align 4
  %16 = alloca i32, align 4
  %17 = alloca i32, align 4
  store ptr %0, ptr %7, align 8
  store ptr %1, ptr %8, align 8
  store ptr %2, ptr %9, align 8
  store ptr %3, ptr %10, align 8
  store i32 %4, ptr %11, align 4
  store i32 %5, ptr %12, align 4
  %18 = load ptr, ptr %10, align 8
  %19 = load i32, ptr %18, align 4
  store i32 %19, ptr %13, align 4
  %20 = load ptr, ptr %9, align 8
  %21 = icmp ne ptr %20, null
  br i1 %21, label %31, label %22

22:                                               ; preds = %6
  %23 = load ptr, ptr %7, align 8
  %24 = load ptr, ptr %8, align 8
  %25 = load i32, ptr %11, align 4
  %26 = load i32, ptr %12, align 4
  %27 = mul nsw i32 %25, %26
  %28 = call noundef i32 @_ZN2cvL7normInfIsiEET0_PKT_S4_i(ptr noundef %23, ptr noundef %24, i32 noundef %27)
  store i32 %28, ptr %14, align 4
  %29 = call noundef nonnull align 4 dereferenceable(4) ptr @_ZSt3maxIiERKT_S2_S2_(ptr noundef nonnull align 4 dereferenceable(4) %13, ptr noundef nonnull align 4 dereferenceable(4) %14)
  %30 = load i32, ptr %29, align 4
  store i32 %30, ptr %13, align 4
  br label %82

31:                                               ; preds = %6
  store i32 0, ptr %15, align 4
  br label %32

32:                                               ; preds = %70, %31
  %33 = load i32, ptr %15, align 4
  %34 = load i32, ptr %11, align 4
  %35 = icmp slt i32 %33, %34
  br i1 %35, label %36, label %81

36:                                               ; preds = %32
  %37 = load ptr, ptr %9, align 8
  %38 = load i32, ptr %15, align 4
  %39 = sext i32 %38 to i64
  %40 = getelementptr inbounds i8, ptr %37, i64 %39
  %41 = load i8, ptr %40, align 1
  %42 = icmp ne i8 %41, 0
  br i1 %42, label %43, label %69

43:                                               ; preds = %36
  store i32 0, ptr %16, align 4
  br label %44

44:                                               ; preds = %65, %43
  %45 = load i32, ptr %16, align 4
  %46 = load i32, ptr %12, align 4
  %47 = icmp slt i32 %45, %46
  br i1 %47, label %48, label %68

48:                                               ; preds = %44
  %49 = load ptr, ptr %7, align 8
  %50 = load i32, ptr %16, align 4
  %51 = sext i32 %50 to i64
  %52 = getelementptr inbounds i16, ptr %49, i64 %51
  %53 = load i16, ptr %52, align 2
  %54 = sext i16 %53 to i32
  %55 = load ptr, ptr %8, align 8
  %56 = load i32, ptr %16, align 4
  %57 = sext i32 %56 to i64
  %58 = getelementptr inbounds i16, ptr %55, i64 %57
  %59 = load i16, ptr %58, align 2
  %60 = sext i16 %59 to i32
  %61 = sub nsw i32 %54, %60
  %62 = call i32 @llvm.abs.i32(i32 %61, i1 true)
  store i32 %62, ptr %17, align 4
  %63 = call noundef nonnull align 4 dereferenceable(4) ptr @_ZSt3maxIiERKT_S2_S2_(ptr noundef nonnull align 4 dereferenceable(4) %13, ptr noundef nonnull align 4 dereferenceable(4) %17)
  %64 = load i32, ptr %63, align 4
  store i32 %64, ptr %13, align 4
  br label %65

65:                                               ; preds = %48
  %66 = load i32, ptr %16, align 4
  %67 = add nsw i32 %66, 1
  store i32 %67, ptr %16, align 4
  br label %44, !llvm.loop !103

68:                                               ; preds = %44
  br label %69

69:                                               ; preds = %68, %36
  br label %70

70:                                               ; preds = %69
  %71 = load i32, ptr %15, align 4
  %72 = add nsw i32 %71, 1
  store i32 %72, ptr %15, align 4
  %73 = load i32, ptr %12, align 4
  %74 = load ptr, ptr %7, align 8
  %75 = sext i32 %73 to i64
  %76 = getelementptr inbounds i16, ptr %74, i64 %75
  store ptr %76, ptr %7, align 8
  %77 = load i32, ptr %12, align 4
  %78 = load ptr, ptr %8, align 8
  %79 = sext i32 %77 to i64
  %80 = getelementptr inbounds i16, ptr %78, i64 %79
  store ptr %80, ptr %8, align 8
  br label %32, !llvm.loop !104

81:                                               ; preds = %32
  br label %82

82:                                               ; preds = %81, %22
  %83 = load i32, ptr %13, align 4
  %84 = load ptr, ptr %10, align 8
  store i32 %83, ptr %84, align 4
  ret i32 0
}

; Function Attrs: mustprogress uwtable
define internal noundef i32 @_ZN2cvL15normDiffInf_16sEPKsS1_PKhPiii(ptr noundef %0, ptr noundef %1, ptr noundef %2, ptr noundef %3, i32 noundef %4, i32 noundef %5) #0 {
  %7 = alloca ptr, align 8
  %8 = alloca ptr, align 8
  %9 = alloca ptr, align 8
  %10 = alloca ptr, align 8
  %11 = alloca i32, align 4
  %12 = alloca i32, align 4
  store ptr %0, ptr %7, align 8
  store ptr %1, ptr %8, align 8
  store ptr %2, ptr %9, align 8
  store ptr %3, ptr %10, align 8
  store i32 %4, ptr %11, align 4
  store i32 %5, ptr %12, align 4
  %13 = load ptr, ptr %7, align 8
  %14 = load ptr, ptr %8, align 8
  %15 = load ptr, ptr %9, align 8
  %16 = load ptr, ptr %10, align 8
  %17 = load i32, ptr %11, align 4
  %18 = load i32, ptr %12, align 4
  %19 = call noundef i32 @_ZN2cv12normDiffInf_IsiEEiPKT_S3_PKhPT0_ii(ptr noundef %13, ptr noundef %14, ptr noundef %15, ptr noundef %16, i32 noundef %17, i32 noundef %18)
  ret i32 %19
}